; Function Attrs: mustprogress uwtable
define dso_local void @_ZN4Luau9Subtyping15isCovariantWithERNS_20SubtypingEnvironmentEPKNS_13PrimitiveTypeES5_NS_7NotNullINS_5ScopeEEE(ptr dead_on_unwind noalias writable sret(%"struct.Luau::SubtypingResult") align 8 initializes((0, 3), (8, 56)) %0, ptr noundef nonnull readnone align 8 captures(none) dereferenceable(208) %1, ptr noundef nonnull readnone align 8 captures(none) dereferenceable(176) %2, ptr noundef readonly captures(none) %3, ptr noundef readonly captures(none) %4, ptr readnone captures(none) %5) local_unnamed_addr #4 align 2 personality ptr @__gxx_personality_v0 {
  %7 = load i32, ptr %3, align 8, !tbaa !192
  %8 = load i32, ptr %4, align 8, !tbaa !192
  %9 = icmp eq i32 %7, %8
  %10 = zext i1 %9 to i8
  store i8 %10, ptr %0, align 8, !tbaa !26
  %11 = getelementptr inbounds nuw i8, ptr %0, i64 1
  store i8 0, ptr %11, align 1, !tbaa !42
  %12 = getelementptr inbounds nuw i8, ptr %0, i64 2
  store i8 1, ptr %12, align 2, !tbaa !43
  %13 = getelementptr inbounds nuw i8, ptr %0, i64 8
  %14 = getelementptr inbounds nuw i8, ptr %0, i64 56
  tail call void @llvm.memset.p0.i64(ptr noundef nonnull align 8 dereferenceable(48) %13, i8 0, i64 48, i1 false)
  invoke void @_ZNSt6vectorIN4Luau7VariantIJNS0_8TypePath8PropertyENS2_5IndexENS2_9TypeFieldENS2_9PackFieldENS2_9ReductionEEEESaIS8_EEC2ERKSA_(ptr noundef nonnull align 8 dereferenceable(52) %14, ptr noundef nonnull align 8 dereferenceable(52) @_ZN4LuauL15kEmptyReasoningE)
          to label %.noexc unwind label %21

.noexc:                                           ; preds = %6
  %15 = getelementptr inbounds nuw i8, ptr %0, i64 80
  invoke void @_ZNSt6vectorIN4Luau7VariantIJNS0_8TypePath8PropertyENS2_5IndexENS2_9TypeFieldENS2_9PackFieldENS2_9ReductionEEEESaIS8_EEC2ERKSA_(ptr noundef nonnull align 8 dereferenceable(24) %15, ptr noundef nonnull align 8 dereferenceable(24) getelementptr inbounds nuw (i8, ptr @_ZN4LuauL15kEmptyReasoningE, i64 24))
          to label %18 unwind label %16

16:                                               ; preds = %.noexc
  %17 = landingpad { ptr, i32 }
          cleanup
  tail call void @_ZN4Luau8TypePath4PathD2Ev(ptr noundef nonnull align 8 dereferenceable(52) %14) #29
  br label %.body

18:                                               ; preds = %.noexc
  %19 = getelementptr inbounds nuw i8, ptr %0, i64 104
  %20 = load i32, ptr getelementptr inbounds nuw (i8, ptr @_ZN4LuauL15kEmptyReasoningE, i64 48), align 8, !tbaa !19
  store i32 %20, ptr %19, align 8, !tbaa !19
  ret void

21:                                               ; preds = %6
  %22 = landingpad { ptr, i32 }
          cleanup
  br label %.body

.body:                                            ; preds = %16, %21
  %eh.lpad-body = phi { ptr, i32 } [ %22, %21 ], [ %17, %16 ]
  tail call void @_ZNSt6vectorIN4Luau9TypeErrorESaIS1_EED2Ev(ptr noundef nonnull align 8 dereferenceable(24) %13) #29
  resume { ptr, i32 } %eh.lpad-body
}